target datalayout = "e-m:e-p270:32:32-p271:32:32-p272:64:64-i64:64-i128:128-f80:128-n8:16:32:64-S128"
target triple = "x86_64-pc-linux-gnu"

%struct.CordRep = type { %struct.Generic, %union.ConcatOrFunc }
%struct.Generic = type { i8, i8, i8, i8, i64 }
%union.ConcatOrFunc = type { %struct.Concatenation }
%struct.Concatenation = type { ptr, ptr }
%struct.Function = type { ptr, ptr }
%struct.CORD_Pos = type { i64, i32, ptr, i64, i64, [49 x %struct.CORD_pe], [8 x i8] }
%struct.CORD_pe = type { ptr, i64 }

@stderr = external global ptr, align 8
@.str = private unnamed_addr constant [4 x i8] c"%s\0A\00", align 1
@.str.4 = private unnamed_addr constant [33 x i8] c"CORD_pos_fetch: invalid argument\00", align 1
@.str.5 = private unnamed_addr constant [25 x i8] c"CORD_pos_fetch: bad leaf\00", align 1

; Function Attrs: nounwind uwtable
define signext i8 @CORD__pos_fetch(ptr noundef %0) #0 {
  %2 = alloca ptr, align 8
  %3 = alloca ptr, align 8
  %4 = alloca ptr, align 8
  %5 = alloca ptr, align 8
  store ptr %0, ptr %2, align 8, !tbaa !53
  call void @llvm.lifetime.start.p0(i64 8, ptr %3) #9
  call void @llvm.lifetime.start.p0(i64 8, ptr %4) #9
  call void @llvm.lifetime.start.p0(i64 8, ptr %5) #9
  %6 = load ptr, ptr %2, align 8, !tbaa !53
  %7 = getelementptr inbounds %struct.CORD_Pos, ptr %6, i64 0
  %8 = getelementptr inbounds nuw %struct.CORD_Pos, ptr %7, i32 0, i32 1
  %9 = load i32, ptr %8, align 8, !tbaa !55
  %10 = icmp ne i32 %9, 1431655765
  br i1 %10, label %14, label %11

11:                                               ; preds = %1
  %12 = load ptr, ptr @stderr, align 8, !tbaa !9
  %13 = call i32 (ptr, ptr, ...) @fprintf(ptr noundef %12, ptr noundef @.str, ptr noundef @.str.4) #9
  call void @abort() #12
  unreachable

14:                                               ; preds = %1
  %15 = load ptr, ptr %2, align 8, !tbaa !53
  %16 = getelementptr inbounds %struct.CORD_Pos, ptr %15, i64 0
  %17 = getelementptr inbounds nuw %struct.CORD_Pos, ptr %16, i32 0, i32 5
  %18 = load ptr, ptr %2, align 8, !tbaa !53
  %19 = getelementptr inbounds %struct.CORD_Pos, ptr %18, i64 0
  %20 = getelementptr inbounds nuw %struct.CORD_Pos, ptr %19, i32 0, i32 1
  %21 = load i32, ptr %20, align 8, !tbaa !55
  %22 = sext i32 %21 to i64
  %23 = getelementptr inbounds [49 x %struct.CORD_pe], ptr %17, i64 0, i64 %22
  store ptr %23, ptr %3, align 8, !tbaa !57
  %24 = load ptr, ptr %3, align 8, !tbaa !57
  %25 = getelementptr inbounds nuw %struct.CORD_pe, ptr %24, i32 0, i32 0
  %26 = load ptr, ptr %25, align 8, !tbaa !59
  store ptr %26, ptr %4, align 8, !tbaa !7
  %27 = load ptr, ptr %4, align 8, !tbaa !7
  %28 = getelementptr inbounds nuw %struct.CordRep, ptr %27, i32 0, i32 0
  %29 = getelementptr inbounds nuw %struct.Generic, ptr %28, i32 0, i32 1
  %30 = load i8, ptr %29, align 1, !tbaa !19
  %31 = sext i8 %30 to i32
  %32 = and i32 %31, 4
  %33 = icmp ne i32 %32, 0
  br i1 %33, label %37, label %34

34:                                               ; preds = %14
  %35 = load ptr, ptr @stderr, align 8, !tbaa !9
  %36 = call i32 (ptr, ptr, ...) @fprintf(ptr noundef %35, ptr noundef @.str, ptr noundef @.str.5) #9
  call void @abort() #12
  unreachable

37:                                               ; preds = %14
  %38 = load ptr, ptr %4, align 8, !tbaa !7
  %39 = getelementptr inbounds nuw %struct.CordRep, ptr %38, i32 0, i32 1
  store ptr %39, ptr %5, align 8, !tbaa !29
  %40 = load ptr, ptr %5, align 8, !tbaa !29
  %41 = getelementptr inbounds nuw %struct.Function, ptr %40, i32 0, i32 0
  %42 = load ptr, ptr %41, align 8, !tbaa !31
  %43 = load ptr, ptr %2, align 8, !tbaa !53
  %44 = getelementptr inbounds %struct.CORD_Pos, ptr %43, i64 0
  %45 = getelementptr inbounds nuw %struct.CORD_Pos, ptr %44, i32 0, i32 0
  %46 = load i64, ptr %45, align 8, !tbaa !61
  %47 = load ptr, ptr %3, align 8, !tbaa !57
  %48 = getelementptr inbounds nuw %struct.CORD_pe, ptr %47, i32 0, i32 1
  %49 = load i64, ptr %48, align 8, !tbaa !62
  %50 = sub i64 %46, %49
  %51 = load ptr, ptr %5, align 8, !tbaa !29
  %52 = getelementptr inbounds nuw %struct.Function, ptr %51, i32 0, i32 1
  %53 = load ptr, ptr %52, align 8, !tbaa !33
  %54 = call signext i8 %42(i64 noundef %50, ptr noundef %53)
  call void @llvm.lifetime.end.p0(i64 8, ptr %5) #9
  call void @llvm.lifetime.end.p0(i64 8, ptr %4) #9
  call void @llvm.lifetime.end.p0(i64 8, ptr %3) #9
  ret i8 %54
}