; Function Attrs: nounwind uwtable
define signext i8 @CORD__pos_fetch(ptr noundef readonly captures(none) %0) local_unnamed_addr #2 {
  %2 = getelementptr inbounds nuw i8, ptr %0, i64 8
  %3 = load i32, ptr %2, align 8, !tbaa !47
  %.not = icmp eq i32 %3, 1431655765
  br i1 %.not, label %4, label %7

4:                                                ; preds = %1
  %5 = load ptr, ptr @stderr, align 8, !tbaa !7
  %6 = tail call i32 (ptr, ptr, ...) @fprintf(ptr noundef %5, ptr noundef nonnull @.str, ptr noundef nonnull @.str.4) #20
  tail call void @abort() #21
  unreachable

7:                                                ; preds = %1
  %8 = getelementptr inbounds nuw i8, ptr %0, i64 40
  %9 = sext i32 %3 to i64
  %10 = getelementptr inbounds [49 x %struct.CORD_pe], ptr %8, i64 0, i64 %9
  %11 = load ptr, ptr %10, align 8, !tbaa !50
  %12 = getelementptr inbounds nuw i8, ptr %11, i64 1
  %13 = load i8, ptr %12, align 1, !tbaa !13
  %14 = and i8 %13, 4
  %.not10 = icmp eq i8 %14, 0
  br i1 %.not10, label %15, label %18

15:                                               ; preds = %7
  %16 = load ptr, ptr @stderr, align 8, !tbaa !7
  %17 = tail call i32 (ptr, ptr, ...) @fprintf(ptr noundef %16, ptr noundef nonnull @.str, ptr noundef nonnull @.str.5) #20
  tail call void @abort() #21
  unreachable

18:                                               ; preds = %7
  %19 = getelementptr inbounds nuw i8, ptr %11, i64 16
  %20 = load ptr, ptr %19, align 8, !tbaa !23
  %21 = load i64, ptr %0, align 8, !tbaa !52
  %22 = getelementptr inbounds nuw i8, ptr %10, i64 8
  %23 = load i64, ptr %22, align 8, !tbaa !53
  %24 = sub i64 %21, %23
  %25 = getelementptr inbounds nuw i8, ptr %11, i64 24
  %26 = load ptr, ptr %25, align 8, !tbaa !25
  %27 = tail call signext i8 %20(i64 noundef %24, ptr noundef %26) #17
  ret i8 %27
}